; Function Attrs: nounwind uwtable
define hidden noundef ptr @luaC_newobj(ptr noundef %0, i8 noundef zeroext %1, i64 noundef %2) local_unnamed_addr #0 {
  %4 = getelementptr inbounds nuw i8, ptr %0, i64 24
  %5 = load ptr, ptr %4, align 8, !tbaa !4
  %6 = and i8 %1, 15
  %7 = zext nneg i8 %6 to i32
  %8 = tail call ptr @luaM_malloc_(ptr noundef %0, i64 noundef %2, i32 noundef %7) #8
  %9 = getelementptr inbounds nuw i8, ptr %5, i64 106
  %10 = load i8, ptr %9, align 2, !tbaa !30
  %11 = and i8 %10, 24
  %12 = getelementptr inbounds nuw i8, ptr %8, i64 9
  store i8 %11, ptr %12, align 1, !tbaa !27
  %13 = getelementptr inbounds nuw i8, ptr %8, i64 8
  store i8 %1, ptr %13, align 8, !tbaa !32
  %14 = getelementptr inbounds nuw i8, ptr %5, i64 112
  %15 = load ptr, ptr %14, align 8, !tbaa !48
  store ptr %15, ptr %8, align 8, !tbaa !47
  store ptr %8, ptr %14, align 8, !tbaa !48
  ret ptr %8
}